target datalayout = "e-m:e-p270:32:32-p271:32:32-p272:64:64-i64:64-i128:128-f80:128-n8:16:32:64-S128"
target triple = "x86_64-pc-linux-gnu"

%struct.ossl_crmf_attributetypeandvalue_st = type { ptr, %union.anon.0 }
%union.anon.0 = type { ptr }

; Function Attrs: nounwind uwtable
define ptr @OSSL_CMP_ATAV_get0_algId(ptr noundef %0) #0 {
  %2 = alloca ptr, align 8
  %3 = alloca ptr, align 8
  store ptr %0, ptr %3, align 8, !tbaa !87
  %4 = load ptr, ptr %3, align 8, !tbaa !87
  %5 = icmp eq ptr %4, null
  br i1 %5, label %12, label %6

6:                                                ; preds = %1
  %7 = load ptr, ptr %3, align 8, !tbaa !87
  %8 = getelementptr inbounds nuw %struct.ossl_crmf_attributetypeandvalue_st, ptr %7, i32 0, i32 0
  %9 = load ptr, ptr %8, align 8, !tbaa !93
  %10 = call i32 @OBJ_obj2nid(ptr noundef %9)
  %11 = icmp ne i32 %10, 1259
  br i1 %11, label %12, label %13

12:                                               ; preds = %6, %1
  store ptr null, ptr %2, align 8
  br label %17

13:                                               ; preds = %6
  %14 = load ptr, ptr %3, align 8, !tbaa !87
  %15 = getelementptr inbounds nuw %struct.ossl_crmf_attributetypeandvalue_st, ptr %14, i32 0, i32 1
  %16 = load ptr, ptr %15, align 8, !tbaa !56
  store ptr %16, ptr %2, align 8
  br label %17

17:                                               ; preds = %13, %12
  %18 = load ptr, ptr %2, align 8
  ret ptr %18
}