; Function Attrs: nounwind uwtable
define ptr @OSSL_CMP_ATAV_get0_algId(ptr noundef readonly captures(address_is_null) %0) local_unnamed_addr #1 {
  %2 = icmp eq ptr %0, null
  br i1 %2, label %9, label %3

3:                                                ; preds = %1
  %4 = load ptr, ptr %0, align 8, !tbaa !29
  %5 = tail call i32 @OBJ_obj2nid(ptr noundef %4) #6
  %.not = icmp eq i32 %5, 1259
  br i1 %.not, label %6, label %9

6:                                                ; preds = %3
  %7 = getelementptr inbounds nuw i8, ptr %0, i64 8
  %8 = load ptr, ptr %7, align 8, !tbaa !9
  br label %9

9:                                                ; preds = %1, %3, %6
  %.0 = phi ptr [ %8, %6 ], [ null, %3 ], [ null, %1 ]
  ret ptr %.0
}